; ModuleID = '16/1085.c'
source_filename = "16/1085.c"
target datalayout = "e-m:e-p270:32:32-p271:32:32-p272:64:64-i64:64-f80:128-n8:16:32:64-S128"
target triple = "x86_64-pc-linux-gnu"

@.str = private unnamed_addr constant [3 x i8] c"%d\00", align 1
@.str.1 = private unnamed_addr constant [6 x i8] c"10000\00", align 1
@.str.2 = private unnamed_addr constant [9 x i8] c"%d%d%d%d\00", align 1
@.str.3 = private unnamed_addr constant [7 x i8] c"%d%d%d\00", align 1
@.str.4 = private unnamed_addr constant [5 x i8] c"%d%d\00", align 1

; Function Attrs: noinline nounwind uwtable
define dso_local i32 @main() #0 {
  %1 = alloca i32, align 4
  %2 = alloca i32, align 4
  %3 = alloca i32, align 4
  %4 = alloca i32, align 4
  %5 = alloca i32, align 4
  %6 = alloca i32, align 4
  %7 = alloca i32, align 4
  store i32 0, i32* %1, align 4
  %8 = call i32 (i8*, ...) @__isoc99_scanf(i8* getelementptr inbounds ([3 x i8], [3 x i8]* @.str, i64 0, i64 0), i32* %2)
  %9 = load i32, i32* %2, align 4
  %10 = icmp sgt i32 %9, 9999
  br i1 %10, label %11, label %12

11:                                               ; preds = %0
  store i32 5, i32* %7, align 4
  br label %28

12:                                               ; preds = %0
  %13 = load i32, i32* %2, align 4
  %14 = icmp sgt i32 %13, 999
  br i1 %14, label %15, label %16

15:                                               ; preds = %12
  store i32 4, i32* %7, align 4
  br label %27

16:                                               ; preds = %12
  %17 = load i32, i32* %2, align 4
  %18 = icmp sgt i32 %17, 99
  br i1 %18, label %19, label %20

19:                                               ; preds = %16
  store i32 3, i32* %7, align 4
  br label %26

20:                                               ; preds = %16
  %21 = load i32, i32* %2, align 4
  %22 = icmp sgt i32 %21, 9
  br i1 %22, label %23, label %24

23:                                               ; preds = %20
  store i32 2, i32* %7, align 4
  br label %25

24:                                               ; preds = %20
  store i32 1, i32* %7, align 4
  br label %25

25:                                               ; preds = %24, %23
  br label %26

26:                                               ; preds = %25, %19
  br label %27

27:                                               ; preds = %26, %15
  br label %28

28:                                               ; preds = %27, %11
  %29 = load i32, i32* %2, align 4
  %30 = sdiv i32 %29, 1000
  store i32 %30, i32* %3, align 4
  %31 = load i32, i32* %2, align 4
  %32 = load i32, i32* %3, align 4
  %33 = mul nsw i32 %32, 1000
  %34 = sub nsw i32 %31, %33
  %35 = sdiv i32 %34, 100
  store i32 %35, i32* %4, align 4
  %36 = load i32, i32* %2, align 4
  %37 = load i32, i32* %3, align 4
  %38 = mul nsw i32 %37, 1000
  %39 = sub nsw i32 %36, %38
  %40 = load i32, i32* %4, align 4
  %41 = mul nsw i32 %40, 100
  %42 = sub nsw i32 %39, %41
  %43 = sdiv i32 %42, 10
  store i32 %43, i32* %5, align 4
  %44 = load i32, i32* %2, align 4
  %45 = load i32, i32* %3, align 4
  %46 = mul nsw i32 %45, 1000
  %47 = sub nsw i32 %44, %46
  %48 = load i32, i32* %4, align 4
  %49 = mul nsw i32 %48, 100
  %50 = sub nsw i32 %47, %49
  %51 = load i32, i32* %5, align 4
  %52 = mul nsw i32 %51, 10
  %53 = sub nsw i32 %50, %52
  store i32 %53, i32* %6, align 4
  %54 = load i32, i32* %7, align 4
  switch i32 %54, label %75 [
    i32 5, label %55
    i32 4, label %57
    i32 3, label %63
    i32 2, label %68
    i32 1, label %72
  ]

55:                                               ; preds = %28
  %56 = call i32 (i8*, ...) @printf(i8* getelementptr inbounds ([6 x i8], [6 x i8]* @.str.1, i64 0, i64 0))
  br label %75

57:                                               ; preds = %28
  %58 = load i32, i32* %6, align 4
  %59 = load i32, i32* %5, align 4
  %60 = load i32, i32* %4, align 4
  %61 = load i32, i32* %3, align 4
  %62 = call i32 (i8*, ...) @printf(i8* getelementptr inbounds ([9 x i8], [9 x i8]* @.str.2, i64 0, i64 0), i32 %58, i32 %59, i32 %60, i32 %61)
  br label %75

63:                                               ; preds = %28
  %64 = load i32, i32* %6, align 4
  %65 = load i32, i32* %5, align 4
  %66 = load i32, i32* %4, align 4
  %67 = call i32 (i8*, ...) @printf(i8* getelementptr inbounds ([7 x i8], [7 x i8]* @.str.3, i64 0, i64 0), i32 %64, i32 %65, i32 %66)
  br label %75

68:                                               ; preds = %28
  %69 = load i32, i32* %6, align 4
  %70 = load i32, i32* %5, align 4
  %71 = call i32 (i8*, ...) @printf(i8* getelementptr inbounds ([5 x i8], [5 x i8]* @.str.4, i64 0, i64 0), i32 %69, i32 %70)
  br label %75

72:                                               ; preds = %28
  %73 = load i32, i32* %6, align 4
  %74 = call i32 (i8*, ...) @printf(i8* getelementptr inbounds ([3 x i8], [3 x i8]* @.str, i64 0, i64 0), i32 %73)
  br label %75

75:                                               ; preds = %72, %28, %68, %63, %57, %55
  ret i32 0
}

declare dso_local i32 @__isoc99_scanf(i8*, ...) #1

declare dso_local i32 @printf(i8*, ...) #1


!llvm.module.flags = !{!0}
!llvm.ident = !{!1}

!0 = !{i32 1, !"wchar_size", i32 4}
!1 = !{!"clang version 10.0.0-4ubuntu1 "}
